; Function Attrs: mustprogress uwtable
define void @_ZN7testing8internal19UniversalPrintArrayEPKcmPSo(ptr noundef readonly captures(none) %0, i64 noundef %1, ptr noundef %2) local_unnamed_addr #4 {
  %.not.i = icmp eq i64 %1, 0
  br i1 %.not.i, label %11, label %4

4:                                                ; preds = %3
  %5 = add i64 %1, -1
  %6 = getelementptr inbounds nuw i8, ptr %0, i64 %5
  %7 = load i8, ptr %6, align 1, !tbaa !13
  %8 = icmp eq i8 %7, 0
  br i1 %8, label %9, label %11

9:                                                ; preds = %4
  %10 = tail call fastcc noundef i32 @_ZN7testing8internalL20PrintCharsAsStringToIcEENS0_10CharFormatEPKT_mPSo(ptr noundef nonnull readonly %0, i64 noundef %5, ptr noundef %2)
  br label %_ZN7testing8internalL23UniversalPrintCharArrayIcEEvPKT_mPSo.exit

11:                                               ; preds = %4, %3
  %12 = tail call fastcc noundef i32 @_ZN7testing8internalL20PrintCharsAsStringToIcEENS0_10CharFormatEPKT_mPSo(ptr noundef readonly %0, i64 noundef %1, ptr noundef %2)
  %13 = tail call noundef nonnull align 8 dereferenceable(8) ptr @_ZSt16__ostream_insertIcSt11char_traitsIcEERSt13basic_ostreamIT_T0_ES6_PKS3_l(ptr noundef nonnull align 8 dereferenceable(8) %2, ptr noundef nonnull @.str.518, i64 noundef 21)
  br label %_ZN7testing8internalL23UniversalPrintCharArrayIcEEvPKT_mPSo.exit

_ZN7testing8internalL23UniversalPrintCharArrayIcEEvPKT_mPSo.exit: ; preds = %9, %11
  ret void
}